; Function Attrs: mustprogress nofree norecurse nosync nounwind willreturn memory(read, inaccessiblemem: none) uwtable
define hidden noundef zeroext i1 @_ZNK4cvc58internal6theory5arith6linear10UpdateInfo14describesPivotEv(ptr noundef nonnull readonly align 8 captures(none) dereferenceable(204) %0) local_unnamed_addr #5 align 2 {
  %2 = getelementptr inbounds nuw i8, ptr %0, i64 192
  %3 = load ptr, ptr %2, align 8, !tbaa !33
  %4 = icmp eq ptr %3, null
  br i1 %4, label %9, label %5

5:                                                ; preds = %1
  %6 = load i32, ptr %0, align 8, !tbaa !12
  %7 = load i32, ptr %3, align 8, !tbaa !40
  %8 = icmp ne i32 %6, %7
  br label %9

9:                                                ; preds = %5, %1
  %10 = phi i1 [ false, %1 ], [ %8, %5 ]
  ret i1 %10
}